target datalayout = "e-m:e-p270:32:32-p271:32:32-p272:64:64-i64:64-i128:128-f80:128-n8:16:32:64-S128"
target triple = "x86_64-pc-linux-gnu"

@memOut = internal global i32 0, align 4
@nodeDataPage = internal global i32 0, align 4
@nodeDataPages = internal global ptr null, align 8
@maxNodeDataPages = internal global i32 0, align 4
@nodeDataPageSize = internal global i32 1024, align 4
@currentNodeDataPage = internal global ptr null, align 8
@nodeDataPageIndex = internal global i32 0, align 4

; Function Attrs: nounwind uwtable
define internal void @ResizeNodeDataPages() #0 {
  %1 = alloca i32, align 4
  %2 = alloca ptr, align 8
  %3 = load i32, ptr @nodeDataPage, align 4
  %4 = add nsw i32 %3, 1
  store i32 %4, ptr @nodeDataPage, align 4
  %5 = load i32, ptr @nodeDataPage, align 4
  %6 = load i32, ptr @maxNodeDataPages, align 4
  %7 = icmp eq i32 %5, %6
  br i1 %7, label %8, label %79

8:                                                ; preds = %0
  %9 = load i32, ptr @maxNodeDataPages, align 4
  %10 = add nsw i32 %9, 128
  %11 = sext i32 %10 to i64
  %12 = mul i64 8, %11
  %13 = call noalias ptr @malloc(i64 noundef %12) #5
  store ptr %13, ptr %2, align 8
  %14 = load ptr, ptr %2, align 8
  %15 = icmp eq ptr %14, null
  br i1 %15, label %16, label %50

16:                                               ; preds = %8
  store i32 0, ptr %1, align 4
  br label %17

17:                                               ; preds = %40, %16
  %18 = load i32, ptr %1, align 4
  %19 = load i32, ptr @nodeDataPage, align 4
  %20 = icmp slt i32 %18, %19
  br i1 %20, label %21, label %43

21:                                               ; preds = %17
  %22 = load ptr, ptr @nodeDataPages, align 8
  %23 = load i32, ptr %1, align 4
  %24 = sext i32 %23 to i64
  %25 = getelementptr inbounds ptr, ptr %22, i64 %24
  %26 = load ptr, ptr %25, align 8
  %27 = icmp ne ptr %26, null
  br i1 %27, label %28, label %38

28:                                               ; preds = %21
  %29 = load ptr, ptr @nodeDataPages, align 8
  %30 = load i32, ptr %1, align 4
  %31 = sext i32 %30 to i64
  %32 = getelementptr inbounds ptr, ptr %29, i64 %31
  %33 = load ptr, ptr %32, align 8
  call void @free(ptr noundef %33) #4
  %34 = load ptr, ptr @nodeDataPages, align 8
  %35 = load i32, ptr %1, align 4
  %36 = sext i32 %35 to i64
  %37 = getelementptr inbounds ptr, ptr %34, i64 %36
  store ptr null, ptr %37, align 8
  br label %39

38:                                               ; preds = %21
  br label %39

39:                                               ; preds = %38, %28
  br label %40

40:                                               ; preds = %39
  %41 = load i32, ptr %1, align 4
  %42 = add nsw i32 %41, 1
  store i32 %42, ptr %1, align 4
  br label %17, !llvm.loop !28

43:                                               ; preds = %17
  %44 = load ptr, ptr @nodeDataPages, align 8
  %45 = icmp ne ptr %44, null
  br i1 %45, label %46, label %48

46:                                               ; preds = %43
  %47 = load ptr, ptr @nodeDataPages, align 8
  call void @free(ptr noundef %47) #4
  store ptr null, ptr @nodeDataPages, align 8
  br label %49

48:                                               ; preds = %43
  br label %49

49:                                               ; preds = %48, %46
  store i32 1, ptr @memOut, align 4
  br label %125

50:                                               ; preds = %8
  store i32 0, ptr %1, align 4
  br label %51

51:                                               ; preds = %65, %50
  %52 = load i32, ptr %1, align 4
  %53 = load i32, ptr @maxNodeDataPages, align 4
  %54 = icmp slt i32 %52, %53
  br i1 %54, label %55, label %68

55:                                               ; preds = %51
  %56 = load ptr, ptr @nodeDataPages, align 8
  %57 = load i32, ptr %1, align 4
  %58 = sext i32 %57 to i64
  %59 = getelementptr inbounds ptr, ptr %56, i64 %58
  %60 = load ptr, ptr %59, align 8
  %61 = load ptr, ptr %2, align 8
  %62 = load i32, ptr %1, align 4
  %63 = sext i32 %62 to i64
  %64 = getelementptr inbounds ptr, ptr %61, i64 %63
  store ptr %60, ptr %64, align 8
  br label %65

65:                                               ; preds = %55
  %66 = load i32, ptr %1, align 4
  %67 = add nsw i32 %66, 1
  store i32 %67, ptr %1, align 4
  br label %51, !llvm.loop !29

68:                                               ; preds = %51
  %69 = load i32, ptr @maxNodeDataPages, align 4
  %70 = add nsw i32 %69, 128
  store i32 %70, ptr @maxNodeDataPages, align 4
  %71 = load ptr, ptr @nodeDataPages, align 8
  %72 = icmp ne ptr %71, null
  br i1 %72, label %73, label %75

73:                                               ; preds = %68
  %74 = load ptr, ptr @nodeDataPages, align 8
  call void @free(ptr noundef %74) #4
  store ptr null, ptr @nodeDataPages, align 8
  br label %76

75:                                               ; preds = %68
  br label %76

76:                                               ; preds = %75, %73
  %77 = load ptr, ptr %2, align 8
  store ptr %77, ptr @nodeDataPages, align 8
  br label %78

78:                                               ; preds = %76
  br label %79

79:                                               ; preds = %78, %0
  %80 = load i32, ptr @nodeDataPageSize, align 4
  %81 = sext i32 %80 to i64
  %82 = mul i64 24, %81
  %83 = call noalias ptr @malloc(i64 noundef %82) #5
  %84 = load ptr, ptr @nodeDataPages, align 8
  %85 = load i32, ptr @nodeDataPage, align 4
  %86 = sext i32 %85 to i64
  %87 = getelementptr inbounds ptr, ptr %84, i64 %86
  store ptr %83, ptr %87, align 8
  store ptr %83, ptr @currentNodeDataPage, align 8
  %88 = load ptr, ptr @currentNodeDataPage, align 8
  %89 = icmp eq ptr %88, null
  br i1 %89, label %90, label %124

90:                                               ; preds = %79
  store i32 0, ptr %1, align 4
  br label %91

91:                                               ; preds = %114, %90
  %92 = load i32, ptr %1, align 4
  %93 = load i32, ptr @nodeDataPage, align 4
  %94 = icmp slt i32 %92, %93
  br i1 %94, label %95, label %117

95:                                               ; preds = %91
  %96 = load ptr, ptr @nodeDataPages, align 8
  %97 = load i32, ptr %1, align 4
  %98 = sext i32 %97 to i64
  %99 = getelementptr inbounds ptr, ptr %96, i64 %98
  %100 = load ptr, ptr %99, align 8
  %101 = icmp ne ptr %100, null
  br i1 %101, label %102, label %112

102:                                              ; preds = %95
  %103 = load ptr, ptr @nodeDataPages, align 8
  %104 = load i32, ptr %1, align 4
  %105 = sext i32 %104 to i64
  %106 = getelementptr inbounds ptr, ptr %103, i64 %105
  %107 = load ptr, ptr %106, align 8
  call void @free(ptr noundef %107) #4
  %108 = load ptr, ptr @nodeDataPages, align 8
  %109 = load i32, ptr %1, align 4
  %110 = sext i32 %109 to i64
  %111 = getelementptr inbounds ptr, ptr %108, i64 %110
  store ptr null, ptr %111, align 8
  br label %113

112:                                              ; preds = %95
  br label %113

113:                                              ; preds = %112, %102
  br label %114

114:                                              ; preds = %113
  %115 = load i32, ptr %1, align 4
  %116 = add nsw i32 %115, 1
  store i32 %116, ptr %1, align 4
  br label %91, !llvm.loop !30

117:                                              ; preds = %91
  %118 = load ptr, ptr @nodeDataPages, align 8
  %119 = icmp ne ptr %118, null
  br i1 %119, label %120, label %122

120:                                              ; preds = %117
  %121 = load ptr, ptr @nodeDataPages, align 8
  call void @free(ptr noundef %121) #4
  store ptr null, ptr @nodeDataPages, align 8
  br label %123

122:                                              ; preds = %117
  br label %123

123:                                              ; preds = %122, %120
  store i32 1, ptr @memOut, align 4
  br label %125

124:                                              ; preds = %79
  store i32 0, ptr @nodeDataPageIndex, align 4
  br label %125

125:                                              ; preds = %124, %123, %49
  ret void
}